(dp0
I16
(lp1
I0
aI0
aI0
asI17
(lp2
I0
aI0
aI95
asI18
(lp3
I0
aI0
aI135
asI19
(lp4
I0
aI0
aI175
asI20
(lp5
I0
aI0
aI215
asI21
(lp6
I0
aI0
aI255
asI22
(lp7
I0
aI95
aI0
asI23
(lp8
I0
aI95
aI95
asI24
(lp9
I0
aI95
aI135
asI25
(lp10
I0
aI95
aI175
asI26
(lp11
I0
aI95
aI215
asI27
(lp12
I0
aI95
aI255
asI28
(lp13
I0
aI135
aI0
asI29
(lp14
I0
aI135
aI95
asI30
(lp15
I0
aI135
aI135
asI31
(lp16
I0
aI135
aI175
asI32
(lp17
I0
aI135
aI215
asI33
(lp18
I0
aI135
aI255
asI34
(lp19
I0
aI175
aI0
asI35
(lp20
I0
aI175
aI95
asI36
(lp21
I0
aI175
aI135
asI37
(lp22
I0
aI175
aI175
asI38
(lp23
I0
aI175
aI215
asI39
(lp24
I0
aI175
aI255
asI40
(lp25
I0
aI215
aI0
asI41
(lp26
I0
aI215
aI95
asI42
(lp27
I0
aI215
aI135
asI43
(lp28
I0
aI215
aI175
asI44
(lp29
I0
aI215
aI215
asI45
(lp30
I0
aI215
aI255
asI46
(lp31
I0
aI255
aI0
asI47
(lp32
I0
aI255
aI95
asI48
(lp33
I0
aI255
aI135
asI49
(lp34
I0
aI255
aI175
asI50
(lp35
I0
aI255
aI215
asI51
(lp36
I0
aI255
aI255
asI52
(lp37
I95
aI0
aI0
asI53
(lp38
I95
aI0
aI95
asI54
(lp39
I95
aI0
aI135
asI55
(lp40
I95
aI0
aI175
asI56
(lp41
I95
aI0
aI215
asI57
(lp42
I95
aI0
aI255
asI58
(lp43
I95
aI95
aI0
asI59
(lp44
I95
aI95
aI95
asI60
(lp45
I95
aI95
aI135
asI61
(lp46
I95
aI95
aI175
asI62
(lp47
I95
aI95
aI215
asI63
(lp48
I95
aI95
aI255
asI64
(lp49
I95
aI135
aI0
asI65
(lp50
I95
aI135
aI95
asI66
(lp51
I95
aI135
aI135
asI67
(lp52
I95
aI135
aI175
asI68
(lp53
I95
aI135
aI215
asI69
(lp54
I95
aI135
aI255
asI70
(lp55
I95
aI175
aI0
asI71
(lp56
I95
aI175
aI95
asI72
(lp57
I95
aI175
aI135
asI73
(lp58
I95
aI175
aI175
asI74
(lp59
I95
aI175
aI215
asI75
(lp60
I95
aI175
aI255
asI76
(lp61
I95
aI215
aI0
asI77
(lp62
I95
aI215
aI95
asI78
(lp63
I95
aI215
aI135
asI79
(lp64
I95
aI215
aI175
asI80
(lp65
I95
aI215
aI215
asI81
(lp66
I95
aI215
aI255
asI82
(lp67
I95
aI255
aI0
asI83
(lp68
I95
aI255
aI95
asI84
(lp69
I95
aI255
aI135
asI85
(lp70
I95
aI255
aI175
asI86
(lp71
I95
aI255
aI215
asI87
(lp72
I95
aI255
aI255
asI88
(lp73
I135
aI0
aI0
asI89
(lp74
I135
aI0
aI95
asI90
(lp75
I135
aI0
aI135
asI91
(lp76
I135
aI0
aI175
asI92
(lp77
I135
aI0
aI215
asI93
(lp78
I135
aI0
aI255
asI94
(lp79
I135
aI95
aI0
asI95
(lp80
I135
aI95
aI95
asI96
(lp81
I135
aI95
aI135
asI97
(lp82
I135
aI95
aI175
asI98
(lp83
I135
aI95
aI215
asI99
(lp84
I135
aI95
aI255
asI100
(lp85
I135
aI135
aI0
asI101
(lp86
I135
aI135
aI95
asI102
(lp87
I135
aI135
aI135
asI103
(lp88
I135
aI135
aI175
asI104
(lp89
I135
aI135
aI215
asI105
(lp90
I135
aI135
aI255
asI106
(lp91
I135
aI175
aI0
asI107
(lp92
I135
aI175
aI95
asI108
(lp93
I135
aI175
aI135
asI109
(lp94
I135
aI175
aI175
asI110
(lp95
I135
aI175
aI215
asI111
(lp96
I135
aI175
aI255
asI112
(lp97
I135
aI215
aI0
asI113
(lp98
I135
aI215
aI95
asI114
(lp99
I135
aI215
aI135
asI115
(lp100
I135
aI215
aI175
asI116
(lp101
I135
aI215
aI215
asI117
(lp102
I135
aI215
aI255
asI118
(lp103
I135
aI255
aI0
asI119
(lp104
I135
aI255
aI95
asI120
(lp105
I135
aI255
aI135
asI121
(lp106
I135
aI255
aI175
asI122
(lp107
I135
aI255
aI215
asI123
(lp108
I135
aI255
aI255
asI124
(lp109
I175
aI0
aI0
asI125
(lp110
I175
aI0
aI95
asI126
(lp111
I175
aI0
aI135
asI127
(lp112
I175
aI0
aI175
asI128
(lp113
I175
aI0
aI215
asI129
(lp114
I175
aI0
aI255
asI130
(lp115
I175
aI95
aI0
asI131
(lp116
I175
aI95
aI95
asI132
(lp117
I175
aI95
aI135
asI133
(lp118
I175
aI95
aI175
asI134
(lp119
I175
aI95
aI215
asI135
(lp120
I175
aI95
aI255
asI136
(lp121
I175
aI135
aI0
asI137
(lp122
I175
aI135
aI95
asI138
(lp123
I175
aI135
aI135
asI139
(lp124
I175
aI135
aI175
asI140
(lp125
I175
aI135
aI215
asI141
(lp126
I175
aI135
aI255
asI142
(lp127
I175
aI175
aI0
asI143
(lp128
I175
aI175
aI95
asI144
(lp129
I175
aI175
aI135
asI145
(lp130
I175
aI175
aI175
asI146
(lp131
I175
aI175
aI215
asI147
(lp132
I175
aI175
aI255
asI148
(lp133
I175
aI215
aI0
asI149
(lp134
I175
aI215
aI95
asI150
(lp135
I175
aI215
aI135
asI151
(lp136
I175
aI215
aI175
asI152
(lp137
I175
aI215
aI215
asI153
(lp138
I175
aI215
aI255
asI154
(lp139
I175
aI255
aI0
asI155
(lp140
I175
aI255
aI95
asI156
(lp141
I175
aI255
aI135
asI157
(lp142
I175
aI255
aI175
asI158
(lp143
I175
aI255
aI215
asI159
(lp144
I175
aI255
aI255
asI160
(lp145
I215
aI0
aI0
asI161
(lp146
I215
aI0
aI95
asI162
(lp147
I215
aI0
aI135
asI163
(lp148
I215
aI0
aI175
asI164
(lp149
I215
aI0
aI215
asI165
(lp150
I215
aI0
aI255
asI166
(lp151
I215
aI95
aI0
asI167
(lp152
I215
aI95
aI95
asI168
(lp153
I215
aI95
aI135
asI169
(lp154
I215
aI95
aI175
asI170
(lp155
I215
aI95
aI215
asI171
(lp156
I215
aI95
aI255
asI172
(lp157
I215
aI135
aI0
asI173
(lp158
I215
aI135
aI95
asI174
(lp159
I215
aI135
aI135
asI175
(lp160
I215
aI135
aI175
asI176
(lp161
I215
aI135
aI215
asI177
(lp162
I215
aI135
aI255
asI178
(lp163
I215
aI175
aI0
asI179
(lp164
I215
aI175
aI95
asI180
(lp165
I215
aI175
aI135
asI181
(lp166
I215
aI175
aI175
asI182
(lp167
I215
aI175
aI215
asI183
(lp168
I215
aI175
aI255
asI184
(lp169
I215
aI215
aI0
asI185
(lp170
I215
aI215
aI95
asI186
(lp171
I215
aI215
aI135
asI187
(lp172
I215
aI215
aI175
asI188
(lp173
I215
aI215
aI215
asI189
(lp174
I215
aI215
aI255
asI190
(lp175
I215
aI255
aI0
asI191
(lp176
I215
aI255
aI95
asI192
(lp177
I215
aI255
aI135
asI193
(lp178
I215
aI255
aI175
asI194
(lp179
I215
aI255
aI215
asI195
(lp180
I215
aI255
aI255
asI196
(lp181
I255
aI0
aI0
asI197
(lp182
I255
aI0
aI95
asI198
(lp183
I255
aI0
aI135
asI199
(lp184
I255
aI0
aI175
asI200
(lp185
I255
aI0
aI215
asI201
(lp186
I255
aI0
aI255
asI202
(lp187
I255
aI95
aI0
asI203
(lp188
I255
aI95
aI95
asI204
(lp189
I255
aI95
aI135
asI205
(lp190
I255
aI95
aI175
asI206
(lp191
I255
aI95
aI215
asI207
(lp192
I255
aI95
aI255
asI208
(lp193
I255
aI135
aI0
asI209
(lp194
I255
aI135
aI95
asI210
(lp195
I255
aI135
aI135
asI211
(lp196
I255
aI135
aI175
asI212
(lp197
I255
aI135
aI215
asI213
(lp198
I255
aI135
aI255
asI214
(lp199
I255
aI175
aI0
asI215
(lp200
I255
aI175
aI95
asI216
(lp201
I255
aI175
aI135
asI217
(lp202
I255
aI175
aI175
asI218
(lp203
I255
aI175
aI215
asI219
(lp204
I255
aI175
aI255
asI220
(lp205
I255
aI215
aI0
asI221
(lp206
I255
aI215
aI95
asI222
(lp207
I255
aI215
aI135
asI223
(lp208
I255
aI215
aI175
asI224
(lp209
I255
aI215
aI215
asI225
(lp210
I255
aI215
aI255
asI226
(lp211
I255
aI255
aI0
asI227
(lp212
I255
aI255
aI95
asI228
(lp213
I255
aI255
aI135
asI229
(lp214
I255
aI255
aI175
asI230
(lp215
I255
aI255
aI215
asI231
(lp216
I255
aI255
aI255
asI232
(lp217
I8
aI8
aI8
asI233
(lp218
I18
aI18
aI18
asI234
(lp219
I28
aI28
aI28
asI235
(lp220
I38
aI38
aI38
asI236
(lp221
I48
aI48
aI48
asI237
(lp222
I58
aI58
aI58
asI238
(lp223
I68
aI68
aI68
asI239
(lp224
I78
aI78
aI78
asI240
(lp225
I88
aI88
aI88
asI241
(lp226
I98
aI98
aI98
asI242
(lp227
I108
aI108
aI108
asI243
(lp228
I118
aI118
aI118
asI244
(lp229
I128
aI128
aI128
asI245
(lp230
I138
aI138
aI138
asI246
(lp231
I148
aI148
aI148
asI247
(lp232
I158
aI158
aI158
asI248
(lp233
I168
aI168
aI168
asI249
(lp234
I178
aI178
aI178
asI250
(lp235
I188
aI188
aI188
asI251
(lp236
I198
aI198
aI198
asI252
(lp237
I208
aI208
aI208
asI253
(lp238
I218
aI218
aI218
asI254
(lp239
I228
aI228
aI228
asI255
(lp240
I238
aI238
aI238
as.
